target datalayout = "e-m:e-p270:32:32-p271:32:32-p272:64:64-i64:64-i128:128-f80:128-n8:16:32:64-S128"
target triple = "x86_64-pc-linux-gnu"

%struct.Vmem = type { ptr, i64, i64 }
%struct.ParseContext_ = type { %struct.TokenData, i32, %union.SourceSpan, %union.SourceSpan, ptr, %struct.Lexer }
%struct.TokenData = type { ptr, i64, %union.anon.86 }
%union.anon.86 = type { %struct.anon.89 }
%struct.anon.89 = type { %struct.Int128_, i8 }
%struct.Int128_ = type { i64, i64 }
%union.SourceSpan = type { i64 }
%struct.Lexer = type { ptr, ptr, ptr, ptr, i32, i32, ptr, ptr, ptr, %struct.TokenData, %union.SourceSpan, i32, i32 }
%struct.Ast_ = type { %union.SourceSpan, i32, i8, %union.anon.62 }
%union.anon.62 = type { %struct.AstDocDirective_ }
%struct.AstDocDirective_ = type { i8, %union.anon.65 }
%union.anon.65 = type { %struct.anon.66 }
%struct.anon.66 = type { ptr, %union.SourceSpan, i8 }
%struct.Expr_ = type { ptr, %union.SourceSpan, i16, %union.anon.30 }
%union.anon.30 = type { %struct.ExprAnySwitch }
%struct.ExprAnySwitch = type { i8, %union.anon.32 }
%union.anon.32 = type { %struct.anon.33 }
%struct.anon.33 = type { ptr, %union.SourceSpan, ptr }
%struct.AstCompoundStmt = type { i32 }
%struct.AstReturnStmt = type { ptr, i32, i32, ptr }
%struct.anon.0 = type { i16, i8, i8, i32 }
%struct.TypeInfo_ = type { i16, ptr, %union.SourceSpan, %union.anon.57 }
%union.anon.57 = type { %struct.anon.58 }
%struct.anon.58 = type { ptr, ptr }
%struct.Type_ = type { i32, ptr, ptr, ptr, %union.anon.90, ptr, ptr, %union.anon.92 }
%union.anon.90 = type { ptr }
%union.anon.92 = type { %struct.TypeFunction }
%struct.TypeFunction = type { ptr, ptr, ptr }

@poisoned_ast = external global ptr, align 8
@.str.11 = private unnamed_addr constant [13 x i8] c"Expected ';'\00", align 1
@ast_arena = external global %struct.Vmem, align 8
@type_info_arena = external global %struct.Vmem, align 8

; Function Attrs: nounwind uwtable
define internal i64 @extend_span_with_token(i64 %0, i64 %1) #0 {
  %3 = alloca %union.SourceSpan, align 8
  %4 = alloca %union.SourceSpan, align 8
  %5 = alloca %union.SourceSpan, align 8
  %6 = getelementptr inbounds %union.SourceSpan, ptr %4, i32 0, i32 0
  store i64 %0, ptr %6, align 8
  %7 = getelementptr inbounds %union.SourceSpan, ptr %5, i32 0, i32 0
  store i64 %1, ptr %7, align 8
  %8 = getelementptr inbounds %struct.anon.0, ptr %4, i32 0, i32 3
  %9 = load i32, ptr %8, align 4
  %10 = getelementptr inbounds %struct.anon.0, ptr %5, i32 0, i32 3
  %11 = load i32, ptr %10, align 4
  %12 = icmp ne i32 %9, %11
  br i1 %12, label %13, label %14

13:                                               ; preds = %2
  call void @llvm.memcpy.p0.p0.i64(ptr align 8 %3, ptr align 8 %4, i64 8, i1 false)
  br label %28

14:                                               ; preds = %2
  %15 = getelementptr inbounds %struct.anon.0, ptr %5, i32 0, i32 2
  %16 = load i8, ptr %15, align 1
  %17 = zext i8 %16 to i32
  %18 = getelementptr inbounds %struct.anon.0, ptr %5, i32 0, i32 1
  %19 = load i8, ptr %18, align 2
  %20 = zext i8 %19 to i32
  %21 = add nsw i32 %17, %20
  %22 = getelementptr inbounds %struct.anon.0, ptr %4, i32 0, i32 2
  %23 = load i8, ptr %22, align 1
  %24 = zext i8 %23 to i32
  %25 = sub nsw i32 %21, %24
  %26 = trunc i32 %25 to i8
  %27 = getelementptr inbounds %struct.anon.0, ptr %4, i32 0, i32 1
  store i8 %26, ptr %27, align 2
  call void @llvm.memcpy.p0.p0.i64(ptr align 8 %3, ptr align 8 %4, i64 8, i1 false)
  br label %28

28:                                               ; preds = %14, %13
  %29 = getelementptr inbounds %union.SourceSpan, ptr %3, i32 0, i32 0
  %30 = load i64, ptr %29, align 8
  ret i64 %30
}

; Function Attrs: nounwind uwtable
define internal i32 @astid(ptr noundef %0) #0 {
  %2 = alloca ptr, align 8
  store ptr %0, ptr %2, align 8
  %3 = load ptr, ptr %2, align 8
  %4 = load ptr, ptr @ast_arena, align 8
  %5 = ptrtoint ptr %3 to i64
  %6 = ptrtoint ptr %4 to i64
  %7 = sub i64 %5, %6
  %8 = sdiv exact i64 %7, 48
  %9 = trunc i64 %8 to i32
  ret i32 %9
}

; Function Attrs: nounwind uwtable
define internal ptr @type_infoptr(i32 noundef %0) #0 {
  %2 = alloca i32, align 4
  store i32 %0, ptr %2, align 4
  %3 = load ptr, ptr @type_info_arena, align 8
  %4 = load i32, ptr %2, align 4
  %5 = zext i32 %4 to i64
  %6 = getelementptr inbounds %struct.TypeInfo_, ptr %3, i64 %5
  ret ptr %6
}

; Function Attrs: nounwind uwtable
define internal ptr @ast_calloc() #0 {
  %1 = call ptr @vmem_alloc(ptr noundef @ast_arena, i64 noundef 48)
  ret ptr %1
}

; Function Attrs: nounwind uwtable
define dso_local ptr @parse_short_body(ptr noundef %0, i32 noundef %1, i1 noundef zeroext %2) #0 {
  %4 = alloca ptr, align 8
  %5 = alloca i32, align 4
  %6 = alloca %union.SourceSpan, align 8
  %7 = alloca i32, align 4
  %8 = alloca ptr, align 8
  %9 = alloca %union.SourceSpan, align 8
  %10 = alloca i32, align 4
  %11 = alloca ptr, align 8
  %12 = alloca %union.SourceSpan, align 8
  %13 = alloca i32, align 4
  %14 = alloca ptr, align 8
  %15 = alloca ptr, align 8
  %16 = alloca ptr, align 8
  %17 = alloca ptr, align 8
  %18 = alloca ptr, align 8
  %19 = alloca ptr, align 8
  %20 = alloca ptr, align 8
  %21 = alloca ptr, align 8
  %22 = alloca i32, align 4
  %23 = alloca ptr, align 8
  %24 = alloca i32, align 4
  %25 = alloca ptr, align 8
  %26 = alloca ptr, align 8
  %27 = alloca i32, align 4
  %28 = alloca i8, align 1
  %29 = alloca ptr, align 8
  %30 = alloca ptr, align 8
  %31 = alloca ptr, align 8
  %32 = alloca ptr, align 8
  %33 = alloca ptr, align 8
  %34 = alloca ptr, align 8
  %35 = alloca ptr, align 8
  %36 = alloca %union.SourceSpan, align 8
  store ptr %0, ptr %26, align 8
  store i32 %1, ptr %27, align 4
  %37 = zext i1 %2 to i8
  store i8 %37, ptr %28, align 1
  %38 = load ptr, ptr %26, align 8
  call void @advance(ptr noundef %38)
  %39 = load ptr, ptr %26, align 8
  store ptr %39, ptr %21, align 8
  store i32 6, ptr %22, align 4
  %40 = load i32, ptr %22, align 4
  %41 = load ptr, ptr %21, align 8
  %42 = getelementptr inbounds %struct.ParseContext_, ptr %41, i32 0, i32 2
  %43 = load i64, ptr %42, align 8
  store i64 %43, ptr %12, align 8
  store i32 %40, ptr %13, align 4
  %44 = call ptr @ast_calloc()
  store ptr %44, ptr %14, align 8
  %45 = load ptr, ptr %14, align 8
  call void @llvm.memcpy.p0.p0.i64(ptr align 8 %45, ptr align 8 %12, i64 8, i1 false)
  %46 = load i32, ptr %13, align 4
  %47 = load ptr, ptr %14, align 8
  %48 = getelementptr inbounds %struct.Ast_, ptr %47, i32 0, i32 2
  %49 = trunc i32 %46 to i8
  store i8 %49, ptr %48, align 4
  %50 = load ptr, ptr %14, align 8
  store ptr %50, ptr %29, align 8
  %51 = load ptr, ptr %29, align 8
  %52 = getelementptr inbounds %struct.Ast_, ptr %51, i32 0, i32 3
  %53 = getelementptr inbounds %struct.AstCompoundStmt, ptr %52, i32 0, i32 0
  store ptr %53, ptr %30, align 8
  %54 = load i32, ptr %27, align 4
  %55 = icmp ne i32 %54, 0
  br i1 %55, label %56, label %59

56:                                               ; preds = %3
  %57 = load i32, ptr %27, align 4
  %58 = call ptr @type_infoptr(i32 noundef %57)
  br label %60

59:                                               ; preds = %3
  br label %60

60:                                               ; preds = %59, %56
  %61 = phi ptr [ %58, %56 ], [ null, %59 ]
  store ptr %61, ptr %31, align 8
  %62 = load ptr, ptr %31, align 8
  %63 = icmp ne ptr %62, null
  br i1 %63, label %64, label %77

64:                                               ; preds = %60
  %65 = load ptr, ptr %31, align 8
  %66 = load i16, ptr %65, align 8
  %67 = and i16 %66, 7
  %68 = zext i16 %67 to i32
  %69 = icmp ne i32 %68, 2
  br i1 %69, label %77, label %70

70:                                               ; preds = %64
  %71 = load ptr, ptr %31, align 8
  %72 = getelementptr inbounds %struct.TypeInfo_, ptr %71, i32 0, i32 1
  %73 = load ptr, ptr %72, align 8
  %74 = getelementptr inbounds %struct.Type_, ptr %73, i32 0, i32 0
  %75 = load i32, ptr %74, align 8
  %76 = icmp ne i32 %75, 1
  br i1 %76, label %77, label %119

77:                                               ; preds = %70, %64, %60
  %78 = load ptr, ptr %26, align 8
  store ptr %78, ptr %23, align 8
  store i32 25, ptr %24, align 4
  %79 = load i32, ptr %24, align 4
  %80 = load ptr, ptr %23, align 8
  %81 = getelementptr inbounds %struct.ParseContext_, ptr %80, i32 0, i32 2
  %82 = load i64, ptr %81, align 8
  store i64 %82, ptr %9, align 8
  store i32 %79, ptr %10, align 4
  %83 = call ptr @ast_calloc()
  store ptr %83, ptr %11, align 8
  %84 = load ptr, ptr %11, align 8
  call void @llvm.memcpy.p0.p0.i64(ptr align 8 %84, ptr align 8 %9, i64 8, i1 false)
  %85 = load i32, ptr %10, align 4
  %86 = load ptr, ptr %11, align 8
  %87 = getelementptr inbounds %struct.Ast_, ptr %86, i32 0, i32 2
  %88 = trunc i32 %85 to i8
  store i8 %88, ptr %87, align 4
  %89 = load ptr, ptr %11, align 8
  store ptr %89, ptr %32, align 8
  %90 = load ptr, ptr %32, align 8
  store ptr %30, ptr %15, align 8
  store ptr %90, ptr %16, align 8
  %91 = load ptr, ptr %16, align 8
  %92 = call i32 @astid(ptr noundef %91)
  %93 = load ptr, ptr %15, align 8
  %94 = load ptr, ptr %93, align 8
  store i32 %92, ptr %94, align 4
  %95 = load ptr, ptr %16, align 8
  %96 = getelementptr inbounds %struct.Ast_, ptr %95, i32 0, i32 1
  %97 = load ptr, ptr %15, align 8
  store ptr %96, ptr %97, align 8
  %98 = load ptr, ptr %26, align 8
  %99 = call ptr @parse_expr(ptr noundef %98)
  store ptr %99, ptr %33, align 8
  %100 = load ptr, ptr %33, align 8
  store ptr %100, ptr %19, align 8
  %101 = load ptr, ptr %19, align 8
  %102 = icmp eq ptr %101, null
  br i1 %102, label %110, label %103

103:                                              ; preds = %77
  %104 = load ptr, ptr %19, align 8
  %105 = getelementptr inbounds %struct.Expr_, ptr %104, i32 0, i32 2
  %106 = load i16, ptr %105, align 8
  %107 = and i16 %106, 255
  %108 = zext i16 %107 to i32
  %109 = icmp ne i32 %108, 0
  br label %110

110:                                              ; preds = %103, %77
  %111 = phi i1 [ true, %77 ], [ %109, %103 ]
  br i1 %111, label %114, label %112

112:                                              ; preds = %110
  %113 = load ptr, ptr @poisoned_ast, align 8
  store ptr %113, ptr %25, align 8
  br label %195

114:                                              ; preds = %110
  %115 = load ptr, ptr %33, align 8
  %116 = load ptr, ptr %32, align 8
  %117 = getelementptr inbounds %struct.Ast_, ptr %116, i32 0, i32 3
  %118 = getelementptr inbounds %struct.AstReturnStmt, ptr %117, i32 0, i32 0
  store ptr %115, ptr %118, align 8
  br label %159

119:                                              ; preds = %70
  %120 = load ptr, ptr %26, align 8
  %121 = getelementptr inbounds %struct.ParseContext_, ptr %120, i32 0, i32 2
  %122 = getelementptr inbounds %union.SourceSpan, ptr %121, i32 0, i32 0
  %123 = load i64, ptr %122, align 8
  store i64 %123, ptr %6, align 8
  store i32 19, ptr %7, align 4
  %124 = call ptr @ast_calloc()
  store ptr %124, ptr %8, align 8
  %125 = load ptr, ptr %8, align 8
  call void @llvm.memcpy.p0.p0.i64(ptr align 8 %125, ptr align 8 %6, i64 8, i1 false)
  %126 = load i32, ptr %7, align 4
  %127 = load ptr, ptr %8, align 8
  %128 = getelementptr inbounds %struct.Ast_, ptr %127, i32 0, i32 2
  %129 = trunc i32 %126 to i8
  store i8 %129, ptr %128, align 4
  %130 = load ptr, ptr %8, align 8
  store ptr %130, ptr %34, align 8
  %131 = load ptr, ptr %26, align 8
  %132 = call ptr @parse_expr(ptr noundef %131)
  store ptr %132, ptr %35, align 8
  %133 = load ptr, ptr %35, align 8
  store ptr %133, ptr %20, align 8
  %134 = load ptr, ptr %20, align 8
  %135 = icmp eq ptr %134, null
  br i1 %135, label %143, label %136

136:                                              ; preds = %119
  %137 = load ptr, ptr %20, align 8
  %138 = getelementptr inbounds %struct.Expr_, ptr %137, i32 0, i32 2
  %139 = load i16, ptr %138, align 8
  %140 = and i16 %139, 255
  %141 = zext i16 %140 to i32
  %142 = icmp ne i32 %141, 0
  br label %143

143:                                              ; preds = %136, %119
  %144 = phi i1 [ true, %119 ], [ %142, %136 ]
  br i1 %144, label %147, label %145

145:                                              ; preds = %143
  %146 = load ptr, ptr @poisoned_ast, align 8
  store ptr %146, ptr %25, align 8
  br label %195

147:                                              ; preds = %143
  %148 = load ptr, ptr %35, align 8
  %149 = load ptr, ptr %34, align 8
  %150 = getelementptr inbounds %struct.Ast_, ptr %149, i32 0, i32 3
  store ptr %148, ptr %150, align 8
  %151 = load ptr, ptr %34, align 8
  store ptr %30, ptr %17, align 8
  store ptr %151, ptr %18, align 8
  %152 = load ptr, ptr %18, align 8
  %153 = call i32 @astid(ptr noundef %152)
  %154 = load ptr, ptr %17, align 8
  %155 = load ptr, ptr %154, align 8
  store i32 %153, ptr %155, align 4
  %156 = load ptr, ptr %18, align 8
  %157 = getelementptr inbounds %struct.Ast_, ptr %156, i32 0, i32 1
  %158 = load ptr, ptr %17, align 8
  store ptr %157, ptr %158, align 8
  br label %159

159:                                              ; preds = %147, %114
  br label %160

160:                                              ; preds = %159
  %161 = load ptr, ptr %29, align 8
  %162 = getelementptr inbounds %struct.Ast_, ptr %161, i32 0, i32 0
  %163 = load ptr, ptr %29, align 8
  %164 = getelementptr inbounds %struct.Ast_, ptr %163, i32 0, i32 0
  %165 = load ptr, ptr %26, align 8
  %166 = getelementptr inbounds %struct.ParseContext_, ptr %165, i32 0, i32 3
  %167 = getelementptr inbounds %union.SourceSpan, ptr %164, i32 0, i32 0
  %168 = load i64, ptr %167, align 8
  %169 = getelementptr inbounds %union.SourceSpan, ptr %166, i32 0, i32 0
  %170 = load i64, ptr %169, align 8
  %171 = call i64 @extend_span_with_token(i64 %168, i64 %170)
  %172 = getelementptr inbounds %union.SourceSpan, ptr %36, i32 0, i32 0
  store i64 %171, ptr %172, align 8
  call void @llvm.memcpy.p0.p0.i64(ptr align 8 %162, ptr align 8 %36, i64 8, i1 false)
  br label %173

173:                                              ; preds = %160
  %174 = load i8, ptr %28, align 1
  %175 = trunc i8 %174 to i1
  br i1 %175, label %176, label %193

176:                                              ; preds = %173
  br label %177

177:                                              ; preds = %176
  %178 = load ptr, ptr %26, align 8
  store ptr %178, ptr %4, align 8
  store i32 9, ptr %5, align 4
  %179 = load ptr, ptr %4, align 8
  %180 = getelementptr inbounds %struct.ParseContext_, ptr %179, i32 0, i32 1
  %181 = load i32, ptr %180, align 8
  %182 = load i32, ptr %5, align 4
  %183 = icmp eq i32 %181, %182
  br i1 %183, label %190, label %184

184:                                              ; preds = %177
  %185 = load ptr, ptr %26, align 8
  %186 = getelementptr inbounds %struct.ParseContext_, ptr %185, i32 0, i32 3
  %187 = getelementptr inbounds %union.SourceSpan, ptr %186, i32 0, i32 0
  %188 = load i64, ptr %187, align 8
  call void (i64, ptr, ...) @sema_error_at_after(i64 %188, ptr noundef @.str.11)
  %189 = load ptr, ptr @poisoned_ast, align 8
  store ptr %189, ptr %25, align 8
  br label %195

190:                                              ; preds = %177
  %191 = load ptr, ptr %26, align 8
  call void @advance(ptr noundef %191)
  br label %192

192:                                              ; preds = %190
  br label %193

193:                                              ; preds = %192, %173
  %194 = load ptr, ptr %29, align 8
  store ptr %194, ptr %25, align 8
  br label %195

195:                                              ; preds = %193, %184, %145, %112
  %196 = load ptr, ptr %25, align 8
  ret ptr %196
}