; Function Attrs: nounwind uwtable
define dso_local ptr @parse_short_body(ptr noundef %0, i32 noundef %1, i1 noundef zeroext %2) local_unnamed_addr #0 {
  tail call void @advance(ptr noundef %0) #5
  %4 = getelementptr inbounds i8, ptr %0, i64 48
  %5 = load i64, ptr %4, align 8
  %6 = tail call ptr @vmem_alloc(ptr noundef nonnull @ast_arena, i64 noundef 48) #5
  store i64 %5, ptr %6, align 8
  %7 = getelementptr inbounds i8, ptr %6, i64 12
  store i8 6, ptr %7, align 4
  %8 = getelementptr inbounds i8, ptr %6, i64 16
  %.not = icmp eq i32 %1, 0
  br i1 %.not, label %.thread, label %9

9:                                                ; preds = %3
  %10 = load ptr, ptr @type_info_arena, align 8
  %11 = zext i32 %1 to i64
  %12 = getelementptr inbounds %struct.TypeInfo_, ptr %10, i64 %11
  %13 = load i16, ptr %12, align 8
  %14 = and i16 %13, 7
  %.not69 = icmp eq i16 %14, 2
  br i1 %.not69, label %15, label %.thread

15:                                               ; preds = %9
  %16 = getelementptr inbounds i8, ptr %12, i64 8
  %17 = load ptr, ptr %16, align 8
  %18 = load i32, ptr %17, align 8
  %.not70 = icmp eq i32 %18, 1
  br i1 %.not70, label %37, label %.thread

.thread:                                          ; preds = %3, %15, %9
  %19 = load i64, ptr %4, align 8
  %20 = tail call ptr @vmem_alloc(ptr noundef nonnull @ast_arena, i64 noundef 48) #5
  store i64 %19, ptr %20, align 8
  %21 = getelementptr inbounds i8, ptr %20, i64 12
  store i8 25, ptr %21, align 4
  %22 = load ptr, ptr @ast_arena, align 8
  %23 = ptrtoint ptr %20 to i64
  %24 = ptrtoint ptr %22 to i64
  %25 = sub i64 %23, %24
  %26 = sdiv exact i64 %25, 48
  %27 = trunc i64 %26 to i32
  store i32 %27, ptr %8, align 4
  %28 = tail call ptr @parse_expr(ptr noundef nonnull %0) #5
  %29 = icmp eq ptr %28, null
  br i1 %29, label %.critedge, label %30

30:                                               ; preds = %.thread
  %31 = getelementptr inbounds i8, ptr %28, i64 16
  %32 = load i16, ptr %31, align 8
  %33 = and i16 %32, 255
  %.not72 = icmp eq i16 %33, 0
  br i1 %.not72, label %34, label %.critedge

34:                                               ; preds = %30
  %35 = load ptr, ptr @poisoned_ast, align 8
  br label %78

.critedge:                                        ; preds = %.thread, %30
  %36 = getelementptr inbounds i8, ptr %20, i64 16
  store ptr %28, ptr %36, align 8
  br label %56

37:                                               ; preds = %15
  %38 = load i64, ptr %4, align 8
  %39 = tail call ptr @vmem_alloc(ptr noundef nonnull @ast_arena, i64 noundef 48) #5
  store i64 %38, ptr %39, align 8
  %40 = getelementptr inbounds i8, ptr %39, i64 12
  store i8 19, ptr %40, align 4
  %41 = tail call ptr @parse_expr(ptr noundef nonnull %0) #5
  %42 = icmp eq ptr %41, null
  br i1 %42, label %.critedge2, label %43

43:                                               ; preds = %37
  %44 = getelementptr inbounds i8, ptr %41, i64 16
  %45 = load i16, ptr %44, align 8
  %46 = and i16 %45, 255
  %.not71 = icmp eq i16 %46, 0
  br i1 %.not71, label %47, label %.critedge2

47:                                               ; preds = %43
  %48 = load ptr, ptr @poisoned_ast, align 8
  br label %78

.critedge2:                                       ; preds = %37, %43
  %49 = getelementptr inbounds i8, ptr %39, i64 16
  store ptr %41, ptr %49, align 8
  %50 = load ptr, ptr @ast_arena, align 8
  %51 = ptrtoint ptr %39 to i64
  %52 = ptrtoint ptr %50 to i64
  %53 = sub i64 %51, %52
  %54 = sdiv exact i64 %53, 48
  %55 = trunc i64 %54 to i32
  store i32 %55, ptr %8, align 4
  br label %56

56:                                               ; preds = %.critedge, %.critedge2
  %57 = getelementptr inbounds i8, ptr %0, i64 56
  %58 = load i64, ptr %6, align 8
  %59 = load i64, ptr %57, align 8
  %.not.unshifted.i = xor i64 %59, %58
  %.not.i = icmp ult i64 %.not.unshifted.i, 4294967296
  br i1 %.not.i, label %61, label %60

60:                                               ; preds = %56
  %.sroa.33.0.extract.shift.i = lshr i64 %58, 16
  br label %extend_span_with_token.exit

61:                                               ; preds = %56
  %.sroa.4.0.extract.shift.i = lshr i64 %58, 24
  %62 = trunc i64 %59 to i32
  %63 = lshr i32 %62, 24
  %64 = lshr i32 %62, 16
  %65 = trunc i64 %.sroa.4.0.extract.shift.i to i32
  %66 = sub i32 %64, %65
  %67 = add i32 %66, %63
  %68 = zext i32 %67 to i64
  br label %extend_span_with_token.exit

extend_span_with_token.exit:                      ; preds = %60, %61
  %.sroa.311.0.i = phi i64 [ %.sroa.33.0.extract.shift.i, %60 ], [ %68, %61 ]
  %.sroa.311.0.insert.ext.i = shl nuw i64 %.sroa.311.0.i, 16
  %.sroa.311.0.insert.shift.i = and i64 %.sroa.311.0.insert.ext.i, 16711680
  %69 = and i64 %58, -16711681
  %.sroa.010.0.insert.insert.i = or disjoint i64 %.sroa.311.0.insert.shift.i, %69
  store i64 %.sroa.010.0.insert.insert.i, ptr %6, align 8
  br i1 %2, label %70, label %78

70:                                               ; preds = %extend_span_with_token.exit
  %71 = getelementptr inbounds i8, ptr %0, i64 40
  %72 = load i32, ptr %71, align 8
  %73 = icmp eq i32 %72, 9
  br i1 %73, label %77, label %74

74:                                               ; preds = %70
  %75 = load i64, ptr %57, align 8
  tail call void (i64, ptr, ...) @sema_error_at_after(i64 %75, ptr noundef nonnull @.str.11) #5
  %76 = load ptr, ptr @poisoned_ast, align 8
  br label %78

77:                                               ; preds = %70
  tail call void @advance(ptr noundef nonnull %0) #5
  br label %78

78:                                               ; preds = %extend_span_with_token.exit, %77, %74, %47, %34
  %.0 = phi ptr [ %76, %74 ], [ %35, %34 ], [ %48, %47 ], [ %6, %77 ], [ %6, %extend_span_with_token.exit ]
  ret ptr %.0
}